ARM GAS  /var/folders/mj/g8q9qvjj1qg4kbgnh_bz76140000gn/T//cc6DIvvR.s 			page 1


   1              		.cpu cortex-m4
   2              		.arch armv7e-m
   3              		.fpu fpv4-sp-d16
   4              		.eabi_attribute 27, 1
   5              		.eabi_attribute 28, 1
   6              		.eabi_attribute 20, 1
   7              		.eabi_attribute 21, 1
   8              		.eabi_attribute 23, 3
   9              		.eabi_attribute 24, 1
  10              		.eabi_attribute 25, 1
  11              		.eabi_attribute 26, 1
  12              		.eabi_attribute 30, 1
  13              		.eabi_attribute 34, 1
  14              		.eabi_attribute 18, 4
  15              		.file	"gpio.c"
  16              		.text
  17              	.Ltext0:
  18              		.cfi_sections	.debug_frame
  19              		.section	.text.MX_GPIO_Init,"ax",%progbits
  20              		.align	1
  21              		.global	MX_GPIO_Init
  22              		.syntax unified
  23              		.thumb
  24              		.thumb_func
  26              	MX_GPIO_Init:
  27              	.LFB134:
  28              		.file 1 "Core/Src/CommunicationProtocol/gpio.c"
   1:Core/Src/CommunicationProtocol/gpio.c **** /* USER CODE BEGIN Header */
   2:Core/Src/CommunicationProtocol/gpio.c **** /**
   3:Core/Src/CommunicationProtocol/gpio.c ****   ******************************************************************************
   4:Core/Src/CommunicationProtocol/gpio.c ****   * @file    gpio.c
   5:Core/Src/CommunicationProtocol/gpio.c ****   * @brief   This file provides code for the configuration
   6:Core/Src/CommunicationProtocol/gpio.c ****   *          of all used GPIO pins.
   7:Core/Src/CommunicationProtocol/gpio.c ****   ******************************************************************************
   8:Core/Src/CommunicationProtocol/gpio.c ****   * @attention
   9:Core/Src/CommunicationProtocol/gpio.c ****   *
  10:Core/Src/CommunicationProtocol/gpio.c ****   * Copyright (c) 2024 STMicroelectronics.
  11:Core/Src/CommunicationProtocol/gpio.c ****   * All rights reserved.
  12:Core/Src/CommunicationProtocol/gpio.c ****   *
  13:Core/Src/CommunicationProtocol/gpio.c ****   * This software is licensed under terms that can be found in the LICENSE file
  14:Core/Src/CommunicationProtocol/gpio.c ****   * in the root directory of this software component.
  15:Core/Src/CommunicationProtocol/gpio.c ****   * If no LICENSE file comes with this software, it is provided AS-IS.
  16:Core/Src/CommunicationProtocol/gpio.c ****   *
  17:Core/Src/CommunicationProtocol/gpio.c ****   ******************************************************************************
  18:Core/Src/CommunicationProtocol/gpio.c ****   */
  19:Core/Src/CommunicationProtocol/gpio.c **** /* USER CODE END Header */
  20:Core/Src/CommunicationProtocol/gpio.c **** 
  21:Core/Src/CommunicationProtocol/gpio.c **** /* Includes ------------------------------------------------------------------*/
  22:Core/Src/CommunicationProtocol/gpio.c **** #include "CommunicationProtocol/gpio.h"
  23:Core/Src/CommunicationProtocol/gpio.c **** /*----------------------------------------------------------------------------*/
  24:Core/Src/CommunicationProtocol/gpio.c **** /* Configure GPIO                                                             */
  25:Core/Src/CommunicationProtocol/gpio.c **** /*----------------------------------------------------------------------------*/
  26:Core/Src/CommunicationProtocol/gpio.c **** 
  27:Core/Src/CommunicationProtocol/gpio.c **** /** Configure pins as
  28:Core/Src/CommunicationProtocol/gpio.c ****         * Analog
  29:Core/Src/CommunicationProtocol/gpio.c ****         * Input
  30:Core/Src/CommunicationProtocol/gpio.c ****         * Output
ARM GAS  /var/folders/mj/g8q9qvjj1qg4kbgnh_bz76140000gn/T//cc6DIvvR.s 			page 2


  31:Core/Src/CommunicationProtocol/gpio.c ****         * EVENT_OUT
  32:Core/Src/CommunicationProtocol/gpio.c ****         * EXTI
  33:Core/Src/CommunicationProtocol/gpio.c ****         * Free pins are configured automatically as Analog
  34:Core/Src/CommunicationProtocol/gpio.c **** */
  35:Core/Src/CommunicationProtocol/gpio.c **** void MX_GPIO_Init(void)
  36:Core/Src/CommunicationProtocol/gpio.c **** {
  29              		.loc 1 36 1 view -0
  30              		.cfi_startproc
  31              		@ args = 0, pretend = 0, frame = 40
  32              		@ frame_needed = 0, uses_anonymous_args = 0
  33 0000 2DE9F041 		push	{r4, r5, r6, r7, r8, lr}
  34              	.LCFI0:
  35              		.cfi_def_cfa_offset 24
  36              		.cfi_offset 4, -24
  37              		.cfi_offset 5, -20
  38              		.cfi_offset 6, -16
  39              		.cfi_offset 7, -12
  40              		.cfi_offset 8, -8
  41              		.cfi_offset 14, -4
  42 0004 8AB0     		sub	sp, sp, #40
  43              	.LCFI1:
  44              		.cfi_def_cfa_offset 64
  37:Core/Src/CommunicationProtocol/gpio.c **** 
  38:Core/Src/CommunicationProtocol/gpio.c ****   GPIO_InitTypeDef GPIO_InitStruct = {0};
  45              		.loc 1 38 3 view .LVU1
  46              		.loc 1 38 20 is_stmt 0 view .LVU2
  47 0006 0024     		movs	r4, #0
  48 0008 0594     		str	r4, [sp, #20]
  49 000a 0694     		str	r4, [sp, #24]
  50 000c 0794     		str	r4, [sp, #28]
  51 000e 0894     		str	r4, [sp, #32]
  52 0010 0994     		str	r4, [sp, #36]
  39:Core/Src/CommunicationProtocol/gpio.c **** 
  40:Core/Src/CommunicationProtocol/gpio.c ****   /* GPIO Ports Clock Enable */
  41:Core/Src/CommunicationProtocol/gpio.c ****   __HAL_RCC_GPIOC_CLK_ENABLE();
  53              		.loc 1 41 3 is_stmt 1 view .LVU3
  54              	.LBB2:
  55              		.loc 1 41 3 view .LVU4
  56 0012 0094     		str	r4, [sp]
  57              		.loc 1 41 3 view .LVU5
  58 0014 4B4B     		ldr	r3, .L3
  59 0016 1A6B     		ldr	r2, [r3, #48]
  60 0018 42F00402 		orr	r2, r2, #4
  61 001c 1A63     		str	r2, [r3, #48]
  62              		.loc 1 41 3 view .LVU6
  63 001e 1A6B     		ldr	r2, [r3, #48]
  64 0020 02F00402 		and	r2, r2, #4
  65 0024 0092     		str	r2, [sp]
  66              		.loc 1 41 3 view .LVU7
  67 0026 009A     		ldr	r2, [sp]
  68              	.LBE2:
  69              		.loc 1 41 3 view .LVU8
  42:Core/Src/CommunicationProtocol/gpio.c ****   __HAL_RCC_GPIOH_CLK_ENABLE();
  70              		.loc 1 42 3 view .LVU9
  71              	.LBB3:
  72              		.loc 1 42 3 view .LVU10
  73 0028 0194     		str	r4, [sp, #4]
ARM GAS  /var/folders/mj/g8q9qvjj1qg4kbgnh_bz76140000gn/T//cc6DIvvR.s 			page 3


  74              		.loc 1 42 3 view .LVU11
  75 002a 1A6B     		ldr	r2, [r3, #48]
  76 002c 42F08002 		orr	r2, r2, #128
  77 0030 1A63     		str	r2, [r3, #48]
  78              		.loc 1 42 3 view .LVU12
  79 0032 1A6B     		ldr	r2, [r3, #48]
  80 0034 02F08002 		and	r2, r2, #128
  81 0038 0192     		str	r2, [sp, #4]
  82              		.loc 1 42 3 view .LVU13
  83 003a 019A     		ldr	r2, [sp, #4]
  84              	.LBE3:
  85              		.loc 1 42 3 view .LVU14
  43:Core/Src/CommunicationProtocol/gpio.c ****   __HAL_RCC_GPIOA_CLK_ENABLE();
  86              		.loc 1 43 3 view .LVU15
  87              	.LBB4:
  88              		.loc 1 43 3 view .LVU16
  89 003c 0294     		str	r4, [sp, #8]
  90              		.loc 1 43 3 view .LVU17
  91 003e 1A6B     		ldr	r2, [r3, #48]
  92 0040 42F00102 		orr	r2, r2, #1
  93 0044 1A63     		str	r2, [r3, #48]
  94              		.loc 1 43 3 view .LVU18
  95 0046 1A6B     		ldr	r2, [r3, #48]
  96 0048 02F00102 		and	r2, r2, #1
  97 004c 0292     		str	r2, [sp, #8]
  98              		.loc 1 43 3 view .LVU19
  99 004e 029A     		ldr	r2, [sp, #8]
 100              	.LBE4:
 101              		.loc 1 43 3 view .LVU20
  44:Core/Src/CommunicationProtocol/gpio.c ****   __HAL_RCC_GPIOB_CLK_ENABLE();
 102              		.loc 1 44 3 view .LVU21
 103              	.LBB5:
 104              		.loc 1 44 3 view .LVU22
 105 0050 0394     		str	r4, [sp, #12]
 106              		.loc 1 44 3 view .LVU23
 107 0052 1A6B     		ldr	r2, [r3, #48]
 108 0054 42F00202 		orr	r2, r2, #2
 109 0058 1A63     		str	r2, [r3, #48]
 110              		.loc 1 44 3 view .LVU24
 111 005a 1A6B     		ldr	r2, [r3, #48]
 112 005c 02F00202 		and	r2, r2, #2
 113 0060 0392     		str	r2, [sp, #12]
 114              		.loc 1 44 3 view .LVU25
 115 0062 039A     		ldr	r2, [sp, #12]
 116              	.LBE5:
 117              		.loc 1 44 3 view .LVU26
  45:Core/Src/CommunicationProtocol/gpio.c ****   __HAL_RCC_GPIOD_CLK_ENABLE();
 118              		.loc 1 45 3 view .LVU27
 119              	.LBB6:
 120              		.loc 1 45 3 view .LVU28
 121 0064 0494     		str	r4, [sp, #16]
 122              		.loc 1 45 3 view .LVU29
 123 0066 1A6B     		ldr	r2, [r3, #48]
 124 0068 42F00802 		orr	r2, r2, #8
 125 006c 1A63     		str	r2, [r3, #48]
 126              		.loc 1 45 3 view .LVU30
 127 006e 1B6B     		ldr	r3, [r3, #48]
ARM GAS  /var/folders/mj/g8q9qvjj1qg4kbgnh_bz76140000gn/T//cc6DIvvR.s 			page 4


 128 0070 03F00803 		and	r3, r3, #8
 129 0074 0493     		str	r3, [sp, #16]
 130              		.loc 1 45 3 view .LVU31
 131 0076 049B     		ldr	r3, [sp, #16]
 132              	.LBE6:
 133              		.loc 1 45 3 view .LVU32
  46:Core/Src/CommunicationProtocol/gpio.c **** 
  47:Core/Src/CommunicationProtocol/gpio.c ****   /*Configure GPIO pin Output Level */
  48:Core/Src/CommunicationProtocol/gpio.c ****   HAL_GPIO_WritePin(GPIOB, GPIO_PIN_14|GPIO_PIN_15, GPIO_PIN_RESET);
 134              		.loc 1 48 3 view .LVU33
 135 0078 334F     		ldr	r7, .L3+4
 136 007a 2246     		mov	r2, r4
 137 007c 4FF44041 		mov	r1, #49152
 138 0080 3846     		mov	r0, r7
 139 0082 FFF7FEFF 		bl	HAL_GPIO_WritePin
 140              	.LVL0:
  49:Core/Src/CommunicationProtocol/gpio.c **** 
  50:Core/Src/CommunicationProtocol/gpio.c ****   /*Configure GPIO pin Output Level */
  51:Core/Src/CommunicationProtocol/gpio.c ****   HAL_GPIO_WritePin(GPIOC, GPIO_PIN_6, GPIO_PIN_RESET);
 141              		.loc 1 51 3 view .LVU34
 142 0086 314E     		ldr	r6, .L3+8
 143 0088 2246     		mov	r2, r4
 144 008a 4021     		movs	r1, #64
 145 008c 3046     		mov	r0, r6
 146 008e FFF7FEFF 		bl	HAL_GPIO_WritePin
 147              	.LVL1:
  52:Core/Src/CommunicationProtocol/gpio.c **** 
  53:Core/Src/CommunicationProtocol/gpio.c ****   /*Configure GPIO pins : PC13 PC14 PC15 PC0
  54:Core/Src/CommunicationProtocol/gpio.c ****                            PC1 PC2 PC3 PC4
  55:Core/Src/CommunicationProtocol/gpio.c ****                            PC5 PC10 PC11 PC12 */
  56:Core/Src/CommunicationProtocol/gpio.c ****   GPIO_InitStruct.Pin = GPIO_PIN_13|GPIO_PIN_14|GPIO_PIN_15|GPIO_PIN_0
 148              		.loc 1 56 3 view .LVU35
 149              		.loc 1 56 23 is_stmt 0 view .LVU36
 150 0092 4FF63F43 		movw	r3, #64575
 151 0096 0593     		str	r3, [sp, #20]
  57:Core/Src/CommunicationProtocol/gpio.c ****                           |GPIO_PIN_1|GPIO_PIN_2|GPIO_PIN_3|GPIO_PIN_4
  58:Core/Src/CommunicationProtocol/gpio.c ****                           |GPIO_PIN_5|GPIO_PIN_10|GPIO_PIN_11|GPIO_PIN_12;
  59:Core/Src/CommunicationProtocol/gpio.c ****   GPIO_InitStruct.Mode = GPIO_MODE_ANALOG;
 152              		.loc 1 59 3 is_stmt 1 view .LVU37
 153              		.loc 1 59 24 is_stmt 0 view .LVU38
 154 0098 0325     		movs	r5, #3
 155 009a 0695     		str	r5, [sp, #24]
  60:Core/Src/CommunicationProtocol/gpio.c ****   GPIO_InitStruct.Pull = GPIO_NOPULL;
 156              		.loc 1 60 3 is_stmt 1 view .LVU39
 157              		.loc 1 60 24 is_stmt 0 view .LVU40
 158 009c 0794     		str	r4, [sp, #28]
  61:Core/Src/CommunicationProtocol/gpio.c ****   HAL_GPIO_Init(GPIOC, &GPIO_InitStruct);
 159              		.loc 1 61 3 is_stmt 1 view .LVU41
 160 009e 05A9     		add	r1, sp, #20
 161 00a0 3046     		mov	r0, r6
 162 00a2 FFF7FEFF 		bl	HAL_GPIO_Init
 163              	.LVL2:
  62:Core/Src/CommunicationProtocol/gpio.c **** 
  63:Core/Src/CommunicationProtocol/gpio.c ****   /*Configure GPIO pins : PH0 PH1 */
  64:Core/Src/CommunicationProtocol/gpio.c ****   GPIO_InitStruct.Pin = GPIO_PIN_0|GPIO_PIN_1;
 164              		.loc 1 64 3 view .LVU42
 165              		.loc 1 64 23 is_stmt 0 view .LVU43
ARM GAS  /var/folders/mj/g8q9qvjj1qg4kbgnh_bz76140000gn/T//cc6DIvvR.s 			page 5


 166 00a6 0595     		str	r5, [sp, #20]
  65:Core/Src/CommunicationProtocol/gpio.c ****   GPIO_InitStruct.Mode = GPIO_MODE_ANALOG;
 167              		.loc 1 65 3 is_stmt 1 view .LVU44
 168              		.loc 1 65 24 is_stmt 0 view .LVU45
 169 00a8 0695     		str	r5, [sp, #24]
  66:Core/Src/CommunicationProtocol/gpio.c ****   GPIO_InitStruct.Pull = GPIO_NOPULL;
 170              		.loc 1 66 3 is_stmt 1 view .LVU46
 171              		.loc 1 66 24 is_stmt 0 view .LVU47
 172 00aa 0794     		str	r4, [sp, #28]
  67:Core/Src/CommunicationProtocol/gpio.c ****   HAL_GPIO_Init(GPIOH, &GPIO_InitStruct);
 173              		.loc 1 67 3 is_stmt 1 view .LVU48
 174 00ac 05A9     		add	r1, sp, #20
 175 00ae 2848     		ldr	r0, .L3+12
 176 00b0 FFF7FEFF 		bl	HAL_GPIO_Init
 177              	.LVL3:
  68:Core/Src/CommunicationProtocol/gpio.c **** 
  69:Core/Src/CommunicationProtocol/gpio.c ****   /*Configure GPIO pins : PA1 PA4 PA8 PA9
  70:Core/Src/CommunicationProtocol/gpio.c ****                            PA10 PA11 PA12 PA13
  71:Core/Src/CommunicationProtocol/gpio.c ****                            PA14 */
  72:Core/Src/CommunicationProtocol/gpio.c ****   GPIO_InitStruct.Pin = GPIO_PIN_1|GPIO_PIN_4|GPIO_PIN_8|GPIO_PIN_9
 178              		.loc 1 72 3 view .LVU49
 179              		.loc 1 72 23 is_stmt 0 view .LVU50
 180 00b4 47F61273 		movw	r3, #32530
 181 00b8 0593     		str	r3, [sp, #20]
  73:Core/Src/CommunicationProtocol/gpio.c ****                           |GPIO_PIN_10|GPIO_PIN_11|GPIO_PIN_12|GPIO_PIN_13
  74:Core/Src/CommunicationProtocol/gpio.c ****                           |GPIO_PIN_14;
  75:Core/Src/CommunicationProtocol/gpio.c ****   GPIO_InitStruct.Mode = GPIO_MODE_ANALOG;
 182              		.loc 1 75 3 is_stmt 1 view .LVU51
 183              		.loc 1 75 24 is_stmt 0 view .LVU52
 184 00ba 0695     		str	r5, [sp, #24]
  76:Core/Src/CommunicationProtocol/gpio.c ****   GPIO_InitStruct.Pull = GPIO_NOPULL;
 185              		.loc 1 76 3 is_stmt 1 view .LVU53
 186              		.loc 1 76 24 is_stmt 0 view .LVU54
 187 00bc 0794     		str	r4, [sp, #28]
  77:Core/Src/CommunicationProtocol/gpio.c ****   HAL_GPIO_Init(GPIOA, &GPIO_InitStruct);
 188              		.loc 1 77 3 is_stmt 1 view .LVU55
 189 00be 05A9     		add	r1, sp, #20
 190 00c0 2448     		ldr	r0, .L3+16
 191 00c2 FFF7FEFF 		bl	HAL_GPIO_Init
 192              	.LVL4:
  78:Core/Src/CommunicationProtocol/gpio.c **** 
  79:Core/Src/CommunicationProtocol/gpio.c ****   /*Configure GPIO pins : PB0 PB1 PB2 PB10
  80:Core/Src/CommunicationProtocol/gpio.c ****                            PB5 PB7 */
  81:Core/Src/CommunicationProtocol/gpio.c ****   GPIO_InitStruct.Pin = GPIO_PIN_0|GPIO_PIN_1|GPIO_PIN_2|GPIO_PIN_10
 193              		.loc 1 81 3 view .LVU56
 194              		.loc 1 81 23 is_stmt 0 view .LVU57
 195 00c6 40F2A743 		movw	r3, #1191
 196 00ca 0593     		str	r3, [sp, #20]
  82:Core/Src/CommunicationProtocol/gpio.c ****                           |GPIO_PIN_5|GPIO_PIN_7;
  83:Core/Src/CommunicationProtocol/gpio.c ****   GPIO_InitStruct.Mode = GPIO_MODE_ANALOG;
 197              		.loc 1 83 3 is_stmt 1 view .LVU58
 198              		.loc 1 83 24 is_stmt 0 view .LVU59
 199 00cc 0695     		str	r5, [sp, #24]
  84:Core/Src/CommunicationProtocol/gpio.c ****   GPIO_InitStruct.Pull = GPIO_NOPULL;
 200              		.loc 1 84 3 is_stmt 1 view .LVU60
 201              		.loc 1 84 24 is_stmt 0 view .LVU61
 202 00ce 0794     		str	r4, [sp, #28]
ARM GAS  /var/folders/mj/g8q9qvjj1qg4kbgnh_bz76140000gn/T//cc6DIvvR.s 			page 6


  85:Core/Src/CommunicationProtocol/gpio.c ****   HAL_GPIO_Init(GPIOB, &GPIO_InitStruct);
 203              		.loc 1 85 3 is_stmt 1 view .LVU62
 204 00d0 05A9     		add	r1, sp, #20
 205 00d2 3846     		mov	r0, r7
 206 00d4 FFF7FEFF 		bl	HAL_GPIO_Init
 207              	.LVL5:
  86:Core/Src/CommunicationProtocol/gpio.c **** 
  87:Core/Src/CommunicationProtocol/gpio.c ****   /*Configure GPIO pins : PB12 PB13 */
  88:Core/Src/CommunicationProtocol/gpio.c ****   GPIO_InitStruct.Pin = GPIO_PIN_12|GPIO_PIN_13;
 208              		.loc 1 88 3 view .LVU63
 209              		.loc 1 88 23 is_stmt 0 view .LVU64
 210 00d8 4FF44053 		mov	r3, #12288
 211 00dc 0593     		str	r3, [sp, #20]
  89:Core/Src/CommunicationProtocol/gpio.c ****   GPIO_InitStruct.Mode = GPIO_MODE_INPUT;
 212              		.loc 1 89 3 is_stmt 1 view .LVU65
 213              		.loc 1 89 24 is_stmt 0 view .LVU66
 214 00de 0694     		str	r4, [sp, #24]
  90:Core/Src/CommunicationProtocol/gpio.c ****   GPIO_InitStruct.Pull = GPIO_NOPULL;
 215              		.loc 1 90 3 is_stmt 1 view .LVU67
 216              		.loc 1 90 24 is_stmt 0 view .LVU68
 217 00e0 0794     		str	r4, [sp, #28]
  91:Core/Src/CommunicationProtocol/gpio.c ****   HAL_GPIO_Init(GPIOB, &GPIO_InitStruct);
 218              		.loc 1 91 3 is_stmt 1 view .LVU69
 219 00e2 05A9     		add	r1, sp, #20
 220 00e4 3846     		mov	r0, r7
 221 00e6 FFF7FEFF 		bl	HAL_GPIO_Init
 222              	.LVL6:
  92:Core/Src/CommunicationProtocol/gpio.c **** 
  93:Core/Src/CommunicationProtocol/gpio.c ****   /*Configure GPIO pins : PB14 PB15 */
  94:Core/Src/CommunicationProtocol/gpio.c ****   GPIO_InitStruct.Pin = GPIO_PIN_14|GPIO_PIN_15;
 223              		.loc 1 94 3 view .LVU70
 224              		.loc 1 94 23 is_stmt 0 view .LVU71
 225 00ea 4FF44043 		mov	r3, #49152
 226 00ee 0593     		str	r3, [sp, #20]
  95:Core/Src/CommunicationProtocol/gpio.c ****   GPIO_InitStruct.Mode = GPIO_MODE_OUTPUT_PP;
 227              		.loc 1 95 3 is_stmt 1 view .LVU72
 228              		.loc 1 95 24 is_stmt 0 view .LVU73
 229 00f0 4FF00108 		mov	r8, #1
 230 00f4 CDF81880 		str	r8, [sp, #24]
  96:Core/Src/CommunicationProtocol/gpio.c ****   GPIO_InitStruct.Pull = GPIO_PULLUP;
 231              		.loc 1 96 3 is_stmt 1 view .LVU74
 232              		.loc 1 96 24 is_stmt 0 view .LVU75
 233 00f8 CDF81C80 		str	r8, [sp, #28]
  97:Core/Src/CommunicationProtocol/gpio.c ****   GPIO_InitStruct.Speed = GPIO_SPEED_HIGH;
 234              		.loc 1 97 3 is_stmt 1 view .LVU76
 235              		.loc 1 97 25 is_stmt 0 view .LVU77
 236 00fc 0895     		str	r5, [sp, #32]
  98:Core/Src/CommunicationProtocol/gpio.c ****   HAL_GPIO_Init(GPIOB, &GPIO_InitStruct);
 237              		.loc 1 98 3 is_stmt 1 view .LVU78
 238 00fe 05A9     		add	r1, sp, #20
 239 0100 3846     		mov	r0, r7
 240 0102 FFF7FEFF 		bl	HAL_GPIO_Init
 241              	.LVL7:
  99:Core/Src/CommunicationProtocol/gpio.c **** 
 100:Core/Src/CommunicationProtocol/gpio.c ****   /*Configure GPIO pin : PC6 */
 101:Core/Src/CommunicationProtocol/gpio.c ****   GPIO_InitStruct.Pin = GPIO_PIN_6;
 242              		.loc 1 101 3 view .LVU79
ARM GAS  /var/folders/mj/g8q9qvjj1qg4kbgnh_bz76140000gn/T//cc6DIvvR.s 			page 7


 243              		.loc 1 101 23 is_stmt 0 view .LVU80
 244 0106 4023     		movs	r3, #64
 245 0108 0593     		str	r3, [sp, #20]
 102:Core/Src/CommunicationProtocol/gpio.c ****   GPIO_InitStruct.Mode = GPIO_MODE_OUTPUT_PP;
 246              		.loc 1 102 3 is_stmt 1 view .LVU81
 247              		.loc 1 102 24 is_stmt 0 view .LVU82
 248 010a CDF81880 		str	r8, [sp, #24]
 103:Core/Src/CommunicationProtocol/gpio.c ****   GPIO_InitStruct.Pull = GPIO_NOPULL;
 249              		.loc 1 103 3 is_stmt 1 view .LVU83
 250              		.loc 1 103 24 is_stmt 0 view .LVU84
 251 010e 0794     		str	r4, [sp, #28]
 104:Core/Src/CommunicationProtocol/gpio.c ****   GPIO_InitStruct.Speed = GPIO_SPEED_FREQ_LOW;
 252              		.loc 1 104 3 is_stmt 1 view .LVU85
 253              		.loc 1 104 25 is_stmt 0 view .LVU86
 254 0110 0894     		str	r4, [sp, #32]
 105:Core/Src/CommunicationProtocol/gpio.c ****   HAL_GPIO_Init(GPIOC, &GPIO_InitStruct);
 255              		.loc 1 105 3 is_stmt 1 view .LVU87
 256 0112 05A9     		add	r1, sp, #20
 257 0114 3046     		mov	r0, r6
 258 0116 FFF7FEFF 		bl	HAL_GPIO_Init
 259              	.LVL8:
 106:Core/Src/CommunicationProtocol/gpio.c **** 
 107:Core/Src/CommunicationProtocol/gpio.c ****   /*Configure GPIO pins : PC7 PC8 PC9 */
 108:Core/Src/CommunicationProtocol/gpio.c ****   GPIO_InitStruct.Pin = GPIO_PIN_7|GPIO_PIN_8|GPIO_PIN_9;
 260              		.loc 1 108 3 view .LVU88
 261              		.loc 1 108 23 is_stmt 0 view .LVU89
 262 011a 4FF46073 		mov	r3, #896
 263 011e 0593     		str	r3, [sp, #20]
 109:Core/Src/CommunicationProtocol/gpio.c ****   GPIO_InitStruct.Mode = GPIO_MODE_INPUT;
 264              		.loc 1 109 3 is_stmt 1 view .LVU90
 265              		.loc 1 109 24 is_stmt 0 view .LVU91
 266 0120 0694     		str	r4, [sp, #24]
 110:Core/Src/CommunicationProtocol/gpio.c ****   GPIO_InitStruct.Pull = GPIO_NOPULL;
 267              		.loc 1 110 3 is_stmt 1 view .LVU92
 268              		.loc 1 110 24 is_stmt 0 view .LVU93
 269 0122 0794     		str	r4, [sp, #28]
 111:Core/Src/CommunicationProtocol/gpio.c ****   HAL_GPIO_Init(GPIOC, &GPIO_InitStruct);
 270              		.loc 1 111 3 is_stmt 1 view .LVU94
 271 0124 05A9     		add	r1, sp, #20
 272 0126 3046     		mov	r0, r6
 273 0128 FFF7FEFF 		bl	HAL_GPIO_Init
 274              	.LVL9:
 112:Core/Src/CommunicationProtocol/gpio.c **** 
 113:Core/Src/CommunicationProtocol/gpio.c ****   /*Configure GPIO pin : PD2 */
 114:Core/Src/CommunicationProtocol/gpio.c ****   GPIO_InitStruct.Pin = GPIO_PIN_2;
 275              		.loc 1 114 3 view .LVU95
 276              		.loc 1 114 23 is_stmt 0 view .LVU96
 277 012c 0423     		movs	r3, #4
 278 012e 0593     		str	r3, [sp, #20]
 115:Core/Src/CommunicationProtocol/gpio.c ****   GPIO_InitStruct.Mode = GPIO_MODE_ANALOG;
 279              		.loc 1 115 3 is_stmt 1 view .LVU97
 280              		.loc 1 115 24 is_stmt 0 view .LVU98
 281 0130 0695     		str	r5, [sp, #24]
 116:Core/Src/CommunicationProtocol/gpio.c ****   GPIO_InitStruct.Pull = GPIO_NOPULL;
 282              		.loc 1 116 3 is_stmt 1 view .LVU99
 283              		.loc 1 116 24 is_stmt 0 view .LVU100
 284 0132 0794     		str	r4, [sp, #28]
ARM GAS  /var/folders/mj/g8q9qvjj1qg4kbgnh_bz76140000gn/T//cc6DIvvR.s 			page 8


 117:Core/Src/CommunicationProtocol/gpio.c ****   HAL_GPIO_Init(GPIOD, &GPIO_InitStruct);
 285              		.loc 1 117 3 is_stmt 1 view .LVU101
 286 0134 05A9     		add	r1, sp, #20
 287 0136 0848     		ldr	r0, .L3+20
 288 0138 FFF7FEFF 		bl	HAL_GPIO_Init
 289              	.LVL10:
 118:Core/Src/CommunicationProtocol/gpio.c **** 
 119:Core/Src/CommunicationProtocol/gpio.c **** }
 290              		.loc 1 119 1 is_stmt 0 view .LVU102
 291 013c 0AB0     		add	sp, sp, #40
 292              	.LCFI2:
 293              		.cfi_def_cfa_offset 24
 294              		@ sp needed
 295 013e BDE8F081 		pop	{r4, r5, r6, r7, r8, pc}
 296              	.L4:
 297 0142 00BF     		.align	2
 298              	.L3:
 299 0144 00380240 		.word	1073887232
 300 0148 00040240 		.word	1073873920
 301 014c 00080240 		.word	1073874944
 302 0150 001C0240 		.word	1073880064
 303 0154 00000240 		.word	1073872896
 304 0158 000C0240 		.word	1073875968
 305              		.cfi_endproc
 306              	.LFE134:
 308              		.text
 309              	.Letext0:
 310              		.file 2 "/usr/local/Cellar/arm-none-eabi-gcc/10.3-2021.10/gcc/arm-none-eabi/include/machine/_defau
 311              		.file 3 "/usr/local/Cellar/arm-none-eabi-gcc/10.3-2021.10/gcc/arm-none-eabi/include/sys/_stdint.h"
 312              		.file 4 "Drivers/CMSIS/Device/ST/STM32F4xx/Include/stm32f401xe.h"
 313              		.file 5 "Drivers/STM32F4xx_HAL_Driver/Inc/stm32f4xx_hal_gpio.h"
ARM GAS  /var/folders/mj/g8q9qvjj1qg4kbgnh_bz76140000gn/T//cc6DIvvR.s 			page 9

